(lp0
(lp1
F0.0
aF0.0
aF0.03
aF0.0
aa(lp2
F0.01
aF0.0
aF0.06
aF-0.02
aa(lp3
F0.03
aF-0.0
aF0.09
aF-0.05
aa(lp4
F0.05
aF-0.0
aF0.12
aF-0.1
aa(lp5
F0.09
aF-0.01
aF0.15
aF-0.17
aa(lp6
F0.13
aF-0.01
aF0.18
aF-0.26
aa(lp7
F0.19
aF-0.03
aF0.21
aF-0.36
aa(lp8
F0.25
aF-0.05
aF0.24
aF-0.48
aa(lp9
F0.31
aF-0.08
aF0.27
aF-0.62
aa(lp10
F0.37
aF-0.13
aF0.3
aF-0.78
aa(lp11
F0.44
aF-0.19
aF0.3
aF-0.95
aa(lp12
F0.49
aF-0.27
aF0.3
aF-0.78
aa(lp13
F0.55
aF-0.33
aF0.3
aF-0.61
aa(lp14
F0.63
aF-0.38
aF0.3
aF-0.43
aa(lp15
F0.71
aF-0.42
aF0.3
aF-0.26
aa(lp16
F0.8
aF-0.44
aF0.3
aF-0.09
aa(lp17
F0.89
aF-0.45
aF0.3
aF0.09
aa(lp18
F0.98
aF-0.44
aF0.3
aF0.26
aa(lp19
F1.06
aF-0.42
aF0.3
aF0.43
aa(lp20
F1.15
aF-0.38
aF0.3
aF0.61
aa(lp21
F1.22
aF-0.33
aF0.3
aF0.78
aa(lp22
F1.28
aF-0.27
aF0.3
aF0.95
aa(lp23
F1.34
aF-0.19
aF0.3
aF1.13
aa(lp24
F1.37
aF-0.11
aF0.3
aF1.3
aa(lp25
F1.4
aF-0.03
aF0.3
aF1.47
aa(lp26
F1.41
aF0.06
aF0.3
aF1.65
aa(lp27
F1.4
aF0.15
aF0.3
aF1.82
aa(lp28
F1.38
aF0.24
aF0.3
aF1.99
aa(lp29
F1.34
aF0.32
aF0.3
aF2.17
aa(lp30
F1.29
aF0.4
aF0.3
aF2.34
aa(lp31
F1.23
aF0.46
aF0.3
aF2.51
aa(lp32
F1.16
aF0.52
aF0.3
aF2.68
aa(lp33
F1.08
aF0.56
aF0.3
aF2.86
aa(lp34
F0.99
aF0.58
aF0.3
aF3.03
aa(lp35
F0.9
aF0.59
aF0.3
aF-3.08
aa(lp36
F0.81
aF0.58
aF0.3
aF-2.91
aa(lp37
F0.72
aF0.56
aF0.3
aF-2.73
aa(lp38
F0.64
aF0.53
aF0.3
aF-2.73
aa(lp39
F0.56
aF0.49
aF0.3
aF-2.73
aa(lp40
F0.47
aF0.46
aF0.27
aF-2.73
aa(lp41
F0.4
aF0.42
aF0.24
aF-2.73
aa(lp42
F0.33
aF0.4
aF0.21
aF-2.87
aa(lp43
F0.27
aF0.38
aF0.18
aF-2.99
aa(lp44
F0.22
aF0.37
aF0.15
aF-3.1
aa(lp45
F0.18
aF0.37
aF0.12
aF3.1
aa(lp46
F0.14
aF0.37
aF0.09
aF3.03
aa(lp47
F0.11
aF0.37
aF0.06
aF2.98
aa(lp48
F0.09
aF0.38
aF0.03
aF2.98
aa.